; Function Attrs: mustprogress uwtable
define noundef zeroext i1 @_ZN3nix10LocalStore22realisationIsUntrustedERKNS_11RealisationE(ptr noundef nonnull align 8 dereferenceable(504) %0, ptr noundef nonnull align 8 dereferenceable(240) %1) unnamed_addr #5 align 2 {
  %3 = load ptr, ptr %0, align 8
  %4 = getelementptr i8, ptr %3, i64 -152
  %5 = load i64, ptr %4, align 8
  %6 = getelementptr inbounds i8, ptr %0, i64 %5
  %7 = getelementptr inbounds i8, ptr %6, i64 144
  %8 = load i8, ptr %7, align 1
  %9 = and i8 %8, 1
  %.not = icmp eq i8 %9, 0
  br i1 %.not, label %13, label %10

10:                                               ; preds = %2
  %11 = tail call noundef nonnull align 8 dereferenceable(48) ptr @_ZN3nix10LocalStore13getPublicKeysB5cxx11Ev(ptr noundef nonnull align 8 dereferenceable(504) %0)
  %12 = tail call noundef i64 @_ZNK3nix11Realisation15checkSignaturesERKSt3mapINSt7__cxx1112basic_stringIcSt11char_traitsIcESaIcEEENS_9PublicKeyESt4lessIS7_ESaISt4pairIKS7_S8_EEE(ptr noundef nonnull align 8 dereferenceable(240) %1, ptr noundef nonnull align 8 dereferenceable(48) %11)
  %.not2 = icmp eq i64 %12, 0
  br label %13

13:                                               ; preds = %10, %2
  %14 = phi i1 [ false, %2 ], [ %.not2, %10 ]
  ret i1 %14
}